; Function Attrs: mustprogress nofree norecurse nosync nounwind willreturn memory(argmem: readwrite) uwtable
define void @_ZN32pxrInternal_v0_24__pxrReserved__16HfPluginRegistryC2ERKNS_6TfTypeE(ptr noundef nonnull align 8 dereferenceable(89) %0, ptr nocapture noundef nonnull readonly align 8 dereferenceable(8) %1) unnamed_addr #0 align 2 personality ptr @__gxx_personality_v0 {
  store ptr getelementptr inbounds inrange(-16, 24) (i8, ptr @_ZTVN32pxrInternal_v0_24__pxrReserved__16HfPluginRegistryE, i64 16), ptr %0, align 8
  %3 = getelementptr inbounds nuw i8, ptr %0, i64 8
  %4 = load i64, ptr %1, align 8
  store i64 %4, ptr %3, align 8
  %5 = getelementptr inbounds nuw i8, ptr %0, i64 16
  %6 = getelementptr inbounds i8, ptr %0, i64 48
  %7 = getelementptr inbounds i8, ptr %0, i64 64
  tail call void @llvm.memset.p0.i64(ptr noundef nonnull align 8 dereferenceable(48) %5, i8 0, i64 48, i1 false)
  store ptr %6, ptr %7, align 8
  %8 = getelementptr inbounds i8, ptr %0, i64 72
  store ptr %6, ptr %8, align 8
  %9 = getelementptr inbounds i8, ptr %0, i64 80
  store i64 0, ptr %9, align 8
  %10 = getelementptr inbounds nuw i8, ptr %0, i64 88
  store i8 0, ptr %10, align 8
  ret void
}